; ModuleID = '6/70.c'
source_filename = "6/70.c"
target datalayout = "e-m:e-p270:32:32-p271:32:32-p272:64:64-i64:64-f80:128-n8:16:32:64-S128"
target triple = "x86_64-pc-linux-gnu"

@.str = private unnamed_addr constant [3 x i8] c"%d\00", align 1
@.str.1 = private unnamed_addr constant [6 x i8] c"%d %d\00", align 1
@.str.2 = private unnamed_addr constant [2 x i8] c"\0A\00", align 1

; Function Attrs: noinline nounwind uwtable
define dso_local i32 @main() #0 {
  %1 = alloca i32, align 4
  %2 = alloca i32*, align 8
  %3 = alloca i32, align 4
  %4 = alloca i32, align 4
  %5 = alloca i32, align 4
  %6 = alloca i32, align 4
  %7 = alloca i32, align 4
  %8 = alloca i32*, align 8
  %9 = alloca i32, align 4
  store i32 0, i32* %1, align 4
  store i32 0, i32* %7, align 4
  %10 = call i32 (i8*, ...) @__isoc99_scanf(i8* getelementptr inbounds ([3 x i8], [3 x i8]* @.str, i64 0, i64 0), i32* %6)
  %11 = load i32, i32* %6, align 4
  %12 = sext i32 %11 to i64
  %13 = call noalias i8* @calloc(i64 %12, i64 4) #3
  %14 = bitcast i8* %13 to i32*
  store i32* %14, i32** %8, align 8
  store i32 0, i32* %3, align 4
  br label %15

15:                                               ; preds = %109, %0
  %16 = load i32, i32* %3, align 4
  %17 = load i32, i32* %6, align 4
  %18 = icmp slt i32 %16, %17
  br i1 %18, label %19, label %112

19:                                               ; preds = %15
  %20 = call i32 (i8*, ...) @__isoc99_scanf(i8* getelementptr inbounds ([6 x i8], [6 x i8]* @.str.1, i64 0, i64 0), i32* %4, i32* %5)
  %21 = load i32, i32* %4, align 4
  %22 = load i32, i32* %5, align 4
  %23 = mul nsw i32 %21, %22
  %24 = sext i32 %23 to i64
  %25 = call noalias i8* @calloc(i64 %24, i64 4) #3
  %26 = bitcast i8* %25 to i32*
  store i32* %26, i32** %2, align 8
  store i32 0, i32* %9, align 4
  br label %27

27:                                               ; preds = %39, %19
  %28 = load i32, i32* %9, align 4
  %29 = load i32, i32* %4, align 4
  %30 = load i32, i32* %5, align 4
  %31 = mul nsw i32 %29, %30
  %32 = icmp slt i32 %28, %31
  br i1 %32, label %33, label %42

33:                                               ; preds = %27
  %34 = load i32*, i32** %2, align 8
  %35 = load i32, i32* %9, align 4
  %36 = sext i32 %35 to i64
  %37 = getelementptr inbounds i32, i32* %34, i64 %36
  %38 = call i32 (i8*, ...) @__isoc99_scanf(i8* getelementptr inbounds ([3 x i8], [3 x i8]* @.str, i64 0, i64 0), i32* %37)
  br label %39

39:                                               ; preds = %33
  %40 = load i32, i32* %9, align 4
  %41 = add nsw i32 %40, 1
  store i32 %41, i32* %9, align 4
  br label %27

42:                                               ; preds = %27
  store i32 0, i32* %9, align 4
  br label %43

43:                                               ; preds = %69, %42
  %44 = load i32, i32* %9, align 4
  %45 = load i32, i32* %4, align 4
  %46 = icmp slt i32 %44, %45
  br i1 %46, label %47, label %72

47:                                               ; preds = %43
  %48 = load i32, i32* %7, align 4
  %49 = load i32*, i32** %2, align 8
  %50 = load i32, i32* %9, align 4
  %51 = load i32, i32* %5, align 4
  %52 = mul nsw i32 %50, %51
  %53 = sext i32 %52 to i64
  %54 = getelementptr inbounds i32, i32* %49, i64 %53
  %55 = load i32, i32* %54, align 4
  %56 = add nsw i32 %48, %55
  %57 = load i32*, i32** %2, align 8
  %58 = load i32, i32* %9, align 4
  %59 = load i32, i32* %5, align 4
  %60 = mul nsw i32 %58, %59
  %61 = sext i32 %60 to i64
  %62 = getelementptr inbounds i32, i32* %57, i64 %61
  %63 = load i32, i32* %5, align 4
  %64 = sext i32 %63 to i64
  %65 = getelementptr inbounds i32, i32* %62, i64 %64
  %66 = getelementptr inbounds i32, i32* %65, i64 -1
  %67 = load i32, i32* %66, align 4
  %68 = add nsw i32 %56, %67
  store i32 %68, i32* %7, align 4
  br label %69

69:                                               ; preds = %47
  %70 = load i32, i32* %9, align 4
  %71 = add nsw i32 %70, 1
  store i32 %71, i32* %9, align 4
  br label %43

72:                                               ; preds = %43
  store i32 1, i32* %9, align 4
  br label %73

73:                                               ; preds = %98, %72
  %74 = load i32, i32* %9, align 4
  %75 = load i32, i32* %5, align 4
  %76 = sub nsw i32 %75, 1
  %77 = icmp slt i32 %74, %76
  br i1 %77, label %78, label %101

78:                                               ; preds = %73
  %79 = load i32, i32* %7, align 4
  %80 = load i32*, i32** %2, align 8
  %81 = load i32, i32* %9, align 4
  %82 = sext i32 %81 to i64
  %83 = getelementptr inbounds i32, i32* %80, i64 %82
  %84 = load i32, i32* %83, align 4
  %85 = add nsw i32 %79, %84
  %86 = load i32*, i32** %2, align 8
  %87 = load i32, i32* %4, align 4
  %88 = sub nsw i32 %87, 1
  %89 = load i32, i32* %5, align 4
  %90 = mul nsw i32 %88, %89
  %91 = sext i32 %90 to i64
  %92 = getelementptr inbounds i32, i32* %86, i64 %91
  %93 = load i32, i32* %9, align 4
  %94 = sext i32 %93 to i64
  %95 = getelementptr inbounds i32, i32* %92, i64 %94
  %96 = load i32, i32* %95, align 4
  %97 = add nsw i32 %85, %96
  store i32 %97, i32* %7, align 4
  br label %98

98:                                               ; preds = %78
  %99 = load i32, i32* %9, align 4
  %100 = add nsw i32 %99, 1
  store i32 %100, i32* %9, align 4
  br label %73

101:                                              ; preds = %73
  %102 = load i32, i32* %7, align 4
  %103 = load i32*, i32** %8, align 8
  %104 = load i32, i32* %3, align 4
  %105 = sext i32 %104 to i64
  %106 = getelementptr inbounds i32, i32* %103, i64 %105
  store i32 %102, i32* %106, align 4
  %107 = load i32*, i32** %2, align 8
  %108 = bitcast i32* %107 to i8*
  call void @free(i8* %108) #3
  store i32 0, i32* %7, align 4
  br label %109

109:                                              ; preds = %101
  %110 = load i32, i32* %3, align 4
  %111 = add nsw i32 %110, 1
  store i32 %111, i32* %3, align 4
  br label %15

112:                                              ; preds = %15
  store i32 0, i32* %3, align 4
  br label %113

113:                                              ; preds = %131, %112
  %114 = load i32, i32* %3, align 4
  %115 = load i32, i32* %6, align 4
  %116 = icmp slt i32 %114, %115
  br i1 %116, label %117, label %134

117:                                              ; preds = %113
  %118 = load i32*, i32** %8, align 8
  %119 = load i32, i32* %3, align 4
  %120 = sext i32 %119 to i64
  %121 = getelementptr inbounds i32, i32* %118, i64 %120
  %122 = load i32, i32* %121, align 4
  %123 = call i32 (i8*, ...) @printf(i8* getelementptr inbounds ([3 x i8], [3 x i8]* @.str, i64 0, i64 0), i32 %122)
  %124 = load i32, i32* %3, align 4
  %125 = load i32, i32* %6, align 4
  %126 = sub nsw i32 %125, 1
  %127 = icmp slt i32 %124, %126
  br i1 %127, label %128, label %130

128:                                              ; preds = %117
  %129 = call i32 (i8*, ...) @printf(i8* getelementptr inbounds ([2 x i8], [2 x i8]* @.str.2, i64 0, i64 0))
  br label %130

130:                                              ; preds = %128, %117
  br label %131

131:                                              ; preds = %130
  %132 = load i32, i32* %3, align 4
  %133 = add nsw i32 %132, 1
  store i32 %133, i32* %3, align 4
  br label %113

134:                                              ; preds = %113
  %135 = load i32, i32* %1, align 4
  ret i32 %135
}

declare dso_local i32 @__isoc99_scanf(i8*, ...) #1

; Function Attrs: nounwind
declare dso_local noalias i8* @calloc(i64, i64) #2

; Function Attrs: nounwind
declare dso_local void @free(i8*) #2

declare dso_local i32 @printf(i8*, ...) #1


!llvm.module.flags = !{!0}
!llvm.ident = !{!1}

!0 = !{i32 1, !"wchar_size", i32 4}
!1 = !{!"clang version 10.0.0-4ubuntu1 "}
